; ModuleID = '17/1419.c'
source_filename = "17/1419.c"
target datalayout = "e-m:e-p270:32:32-p271:32:32-p272:64:64-i64:64-f80:128-n8:16:32:64-S128"
target triple = "x86_64-pc-linux-gnu"

@.str = private unnamed_addr constant [3 x i8] c"%s\00", align 1
@.str.1 = private unnamed_addr constant [4 x i8] c"%s\0A\00", align 1

; Function Attrs: noinline nounwind uwtable
define dso_local i32 @main() #0 {
  %1 = alloca i32, align 4
  %2 = alloca i32, align 4
  %3 = alloca i32, align 4
  %4 = alloca i32, align 4
  %5 = alloca i32, align 4
  %6 = alloca i32, align 4
  %7 = alloca i32, align 4
  %8 = alloca i32, align 4
  %9 = alloca i32, align 4
  %10 = alloca i32, align 4
  %11 = alloca i32, align 4
  %12 = alloca [1000 x i8], align 16
  store i32 0, i32* %1, align 4
  br label %13

13:                                               ; preds = %124, %0
  %14 = getelementptr inbounds [1000 x i8], [1000 x i8]* %12, i64 0, i64 0
  %15 = call i32 (i8*, ...) @__isoc99_scanf(i8* getelementptr inbounds ([3 x i8], [3 x i8]* @.str, i64 0, i64 0), i8* %14)
  %16 = icmp ne i32 %15, -1
  br i1 %16, label %17, label %127

17:                                               ; preds = %13
  %18 = getelementptr inbounds [1000 x i8], [1000 x i8]* %12, i64 0, i64 0
  %19 = call i32 (i8*, ...) @printf(i8* getelementptr inbounds ([4 x i8], [4 x i8]* @.str.1, i64 0, i64 0), i8* %18)
  store i32 0, i32* %4, align 4
  br label %20

20:                                               ; preds = %82, %17
  %21 = load i32, i32* %4, align 4
  %22 = icmp slt i32 %21, 100
  br i1 %22, label %23, label %85

23:                                               ; preds = %20
  store i32 0, i32* %2, align 4
  br label %24

24:                                               ; preds = %78, %23
  %25 = load i32, i32* %2, align 4
  %26 = sext i32 %25 to i64
  %27 = getelementptr inbounds [1000 x i8], [1000 x i8]* %12, i64 0, i64 %26
  %28 = load i8, i8* %27, align 1
  %29 = sext i8 %28 to i32
  %30 = icmp ne i32 %29, 0
  br i1 %30, label %31, label %81

31:                                               ; preds = %24
  %32 = load i32, i32* %2, align 4
  %33 = sext i32 %32 to i64
  %34 = getelementptr inbounds [1000 x i8], [1000 x i8]* %12, i64 0, i64 %33
  %35 = load i8, i8* %34, align 1
  %36 = sext i8 %35 to i32
  %37 = icmp eq i32 %36, 40
  br i1 %37, label %38, label %77

38:                                               ; preds = %31
  %39 = load i32, i32* %2, align 4
  %40 = add nsw i32 %39, 1
  store i32 %40, i32* %3, align 4
  br label %41

41:                                               ; preds = %73, %38
  %42 = load i32, i32* %3, align 4
  %43 = sext i32 %42 to i64
  %44 = getelementptr inbounds [1000 x i8], [1000 x i8]* %12, i64 0, i64 %43
  %45 = load i8, i8* %44, align 1
  %46 = sext i8 %45 to i32
  %47 = icmp ne i32 %46, 0
  br i1 %47, label %48, label %76

48:                                               ; preds = %41
  %49 = load i32, i32* %3, align 4
  %50 = sext i32 %49 to i64
  %51 = getelementptr inbounds [1000 x i8], [1000 x i8]* %12, i64 0, i64 %50
  %52 = load i8, i8* %51, align 1
  %53 = sext i8 %52 to i32
  %54 = icmp eq i32 %53, 40
  br i1 %54, label %55, label %58

55:                                               ; preds = %48
  %56 = load i32, i32* %3, align 4
  %57 = sub nsw i32 %56, 1
  store i32 %57, i32* %2, align 4
  br label %76

58:                                               ; preds = %48
  %59 = load i32, i32* %3, align 4
  %60 = sext i32 %59 to i64
  %61 = getelementptr inbounds [1000 x i8], [1000 x i8]* %12, i64 0, i64 %60
  %62 = load i8, i8* %61, align 1
  %63 = sext i8 %62 to i32
  %64 = icmp eq i32 %63, 41
  br i1 %64, label %65, label %72

65:                                               ; preds = %58
  %66 = load i32, i32* %2, align 4
  %67 = sext i32 %66 to i64
  %68 = getelementptr inbounds [1000 x i8], [1000 x i8]* %12, i64 0, i64 %67
  store i8 32, i8* %68, align 1
  %69 = load i32, i32* %3, align 4
  %70 = sext i32 %69 to i64
  %71 = getelementptr inbounds [1000 x i8], [1000 x i8]* %12, i64 0, i64 %70
  store i8 32, i8* %71, align 1
  br label %76

72:                                               ; preds = %58
  br label %73

73:                                               ; preds = %72
  %74 = load i32, i32* %3, align 4
  %75 = add nsw i32 %74, 1
  store i32 %75, i32* %3, align 4
  br label %41

76:                                               ; preds = %65, %55, %41
  br label %77

77:                                               ; preds = %76, %31
  br label %78

78:                                               ; preds = %77
  %79 = load i32, i32* %2, align 4
  %80 = add nsw i32 %79, 1
  store i32 %80, i32* %2, align 4
  br label %24

81:                                               ; preds = %24
  br label %82

82:                                               ; preds = %81
  %83 = load i32, i32* %4, align 4
  %84 = add nsw i32 %83, 1
  store i32 %84, i32* %4, align 4
  br label %20

85:                                               ; preds = %20
  store i32 0, i32* %2, align 4
  br label %86

86:                                               ; preds = %121, %85
  %87 = load i32, i32* %2, align 4
  %88 = sext i32 %87 to i64
  %89 = getelementptr inbounds [1000 x i8], [1000 x i8]* %12, i64 0, i64 %88
  %90 = load i8, i8* %89, align 1
  %91 = sext i8 %90 to i32
  %92 = icmp ne i32 %91, 0
  br i1 %92, label %93, label %124

93:                                               ; preds = %86
  %94 = load i32, i32* %2, align 4
  %95 = sext i32 %94 to i64
  %96 = getelementptr inbounds [1000 x i8], [1000 x i8]* %12, i64 0, i64 %95
  %97 = load i8, i8* %96, align 1
  %98 = sext i8 %97 to i32
  %99 = icmp eq i32 %98, 40
  br i1 %99, label %100, label %104

100:                                              ; preds = %93
  %101 = load i32, i32* %2, align 4
  %102 = sext i32 %101 to i64
  %103 = getelementptr inbounds [1000 x i8], [1000 x i8]* %12, i64 0, i64 %102
  store i8 36, i8* %103, align 1
  br label %120

104:                                              ; preds = %93
  %105 = load i32, i32* %2, align 4
  %106 = sext i32 %105 to i64
  %107 = getelementptr inbounds [1000 x i8], [1000 x i8]* %12, i64 0, i64 %106
  %108 = load i8, i8* %107, align 1
  %109 = sext i8 %108 to i32
  %110 = icmp eq i32 %109, 41
  br i1 %110, label %111, label %115

111:                                              ; preds = %104
  %112 = load i32, i32* %2, align 4
  %113 = sext i32 %112 to i64
  %114 = getelementptr inbounds [1000 x i8], [1000 x i8]* %12, i64 0, i64 %113
  store i8 63, i8* %114, align 1
  br label %119

115:                                              ; preds = %104
  %116 = load i32, i32* %2, align 4
  %117 = sext i32 %116 to i64
  %118 = getelementptr inbounds [1000 x i8], [1000 x i8]* %12, i64 0, i64 %117
  store i8 32, i8* %118, align 1
  br label %119

119:                                              ; preds = %115, %111
  br label %120

120:                                              ; preds = %119, %100
  br label %121

121:                                              ; preds = %120
  %122 = load i32, i32* %2, align 4
  %123 = add nsw i32 %122, 1
  store i32 %123, i32* %2, align 4
  br label %86

124:                                              ; preds = %86
  %125 = getelementptr inbounds [1000 x i8], [1000 x i8]* %12, i64 0, i64 0
  %126 = call i32 (i8*, ...) @printf(i8* getelementptr inbounds ([4 x i8], [4 x i8]* @.str.1, i64 0, i64 0), i8* %125)
  br label %13

127:                                              ; preds = %13
  %128 = load i32, i32* %1, align 4
  ret i32 %128
}

declare dso_local i32 @__isoc99_scanf(i8*, ...) #1

declare dso_local i32 @printf(i8*, ...) #1


!llvm.module.flags = !{!0}
!llvm.ident = !{!1}

!0 = !{i32 1, !"wchar_size", i32 4}
!1 = !{!"clang version 10.0.0-4ubuntu1 "}
